; Function Attrs: nounwind uwtable
define dso_local void @jq_yyrestart(ptr noundef %0, ptr noundef captures(none) %1) local_unnamed_addr #0 {
  %3 = getelementptr inbounds nuw i8, ptr %1, i64 40
  %4 = load ptr, ptr %3, align 8, !tbaa !22
  %.not = icmp eq ptr %4, null
  br i1 %.not, label %10, label %5

5:                                                ; preds = %2
  %6 = getelementptr inbounds nuw i8, ptr %1, i64 24
  %7 = load i64, ptr %6, align 8, !tbaa !23
  %8 = getelementptr inbounds nuw ptr, ptr %4, i64 %7
  %9 = load ptr, ptr %8, align 8, !tbaa !24
  %.not16 = icmp eq ptr %9, null
  br i1 %.not16, label %16, label %42

10:                                               ; preds = %2
  %11 = tail call ptr @jv_mem_alloc(i64 noundef 8) #17
  store ptr %11, ptr %3, align 8, !tbaa !22
  %.not28.i = icmp eq ptr %11, null
  br i1 %.not28.i, label %12, label %13

12:                                               ; preds = %10
  tail call fastcc void @yy_fatal_error(ptr noundef nonnull @.str.13) #18
  unreachable

13:                                               ; preds = %10
  store i64 0, ptr %11, align 8
  %14 = getelementptr inbounds nuw i8, ptr %1, i64 32
  store i64 1, ptr %14, align 8, !tbaa !26
  %15 = getelementptr inbounds nuw i8, ptr %1, i64 24
  store i64 0, ptr %15, align 8, !tbaa !23
  br label %jq_yyensure_buffer_stack.exit

16:                                               ; preds = %5
  %17 = getelementptr inbounds nuw i8, ptr %1, i64 32
  %18 = load i64, ptr %17, align 8, !tbaa !26
  %19 = add i64 %18, -1
  %.not29.i = icmp ult i64 %7, %19
  br i1 %.not29.i, label %jq_yyensure_buffer_stack.exit, label %20

20:                                               ; preds = %16
  %21 = add i64 %18, 8
  %22 = shl i64 %21, 3
  %23 = tail call ptr @jv_mem_realloc(ptr noundef nonnull %4, i64 noundef %22) #17
  store ptr %23, ptr %3, align 8, !tbaa !22
  %.not30.i = icmp eq ptr %23, null
  br i1 %.not30.i, label %24, label %25

24:                                               ; preds = %20
  tail call fastcc void @yy_fatal_error(ptr noundef nonnull @.str.13) #18
  unreachable

25:                                               ; preds = %20
  %26 = load i64, ptr %17, align 8, !tbaa !26
  %27 = getelementptr inbounds nuw ptr, ptr %23, i64 %26
  tail call void @llvm.memset.p0.i64(ptr noundef nonnull align 8 dereferenceable(64) %27, i8 0, i64 64, i1 false)
  store i64 %21, ptr %17, align 8, !tbaa !26
  br label %jq_yyensure_buffer_stack.exit

jq_yyensure_buffer_stack.exit:                    ; preds = %13, %16, %25
  %28 = getelementptr inbounds nuw i8, ptr %1, i64 8
  %29 = load ptr, ptr %28, align 8, !tbaa !19
  %30 = tail call ptr @jv_mem_alloc(i64 noundef 64) #17
  %.not.i18 = icmp eq ptr %30, null
  br i1 %.not.i18, label %31, label %32

31:                                               ; preds = %jq_yyensure_buffer_stack.exit
  tail call fastcc void @yy_fatal_error(ptr noundef nonnull @.str.3) #18
  unreachable

32:                                               ; preds = %jq_yyensure_buffer_stack.exit
  %33 = getelementptr inbounds nuw i8, ptr %30, i64 24
  store i32 16384, ptr %33, align 8, !tbaa !27
  %34 = tail call ptr @jv_mem_alloc(i64 noundef 16386) #17
  %35 = getelementptr inbounds nuw i8, ptr %30, i64 8
  store ptr %34, ptr %35, align 8, !tbaa !29
  %.not14.i = icmp eq ptr %34, null
  br i1 %.not14.i, label %36, label %.thread19

36:                                               ; preds = %32
  tail call fastcc void @yy_fatal_error(ptr noundef nonnull @.str.3) #18
  unreachable

.thread19:                                        ; preds = %32
  %37 = getelementptr inbounds nuw i8, ptr %30, i64 32
  store i32 1, ptr %37, align 8, !tbaa !30
  tail call fastcc void @jq_yy_init_buffer(ptr noundef nonnull %30, ptr noundef %29, ptr noundef nonnull %1)
  %38 = load ptr, ptr %3, align 8, !tbaa !22
  %39 = getelementptr inbounds nuw i8, ptr %1, i64 24
  %40 = load i64, ptr %39, align 8, !tbaa !23
  %41 = getelementptr inbounds nuw ptr, ptr %38, i64 %40
  store ptr %30, ptr %41, align 8, !tbaa !24
  br label %42

42:                                               ; preds = %.thread19, %5
  %43 = phi ptr [ %30, %.thread19 ], [ %9, %5 ]
  tail call fastcc void @jq_yy_init_buffer(ptr noundef nonnull %43, ptr noundef %0, ptr noundef nonnull %1)
  %44 = load ptr, ptr %3, align 8, !tbaa !22
  %45 = getelementptr inbounds nuw i8, ptr %1, i64 24
  %46 = load i64, ptr %45, align 8, !tbaa !23
  %47 = getelementptr inbounds nuw ptr, ptr %44, i64 %46
  %48 = load ptr, ptr %47, align 8, !tbaa !24
  %49 = getelementptr inbounds nuw i8, ptr %48, i64 28
  %50 = load i32, ptr %49, align 4, !tbaa !31
  %51 = getelementptr inbounds nuw i8, ptr %1, i64 52
  store i32 %50, ptr %51, align 4, !tbaa !32
  %52 = getelementptr inbounds nuw i8, ptr %48, i64 16
  %53 = load ptr, ptr %52, align 8, !tbaa !33
  %54 = getelementptr inbounds nuw i8, ptr %1, i64 64
  store ptr %53, ptr %54, align 8, !tbaa !34
  %55 = getelementptr inbounds nuw i8, ptr %1, i64 128
  store ptr %53, ptr %55, align 8, !tbaa !35
  %56 = load ptr, ptr %48, align 8, !tbaa !36
  %57 = getelementptr inbounds nuw i8, ptr %1, i64 8
  store ptr %56, ptr %57, align 8, !tbaa !19
  %58 = load i8, ptr %53, align 1, !tbaa !37
  %59 = getelementptr inbounds nuw i8, ptr %1, i64 48
  store i8 %58, ptr %59, align 8, !tbaa !38
  ret void
}